Certificate:
    Data:
        Version: 3 (0x2)
        Serial Number: 6 (0x6)
    Signature Algorithm: sha512WithRSAEncryption
        Issuer: C=FI, CN=Spaceify CA, O=Spaceify Inc., OU=Certificate issuer
        Validity
            Not Before: Mar 25 11:30:38 2015 GMT
            Not After : Jan  7 04:58:09 2026 GMT
        Subject: C=FI, CN=Server, O=Spaceify Inc., OU=Spaceify core
        Subject Public Key Info:
            Public Key Algorithm: rsaEncryption
                Public-Key: (4096 bit)
                Modulus:
                    00:d7:d6:58:3b:59:3c:4f:4e:f8:06:fd:b2:18:c7:
                    3d:ac:7a:e0:c7:81:f1:37:72:22:e3:e3:20:d5:dd:
                    4a:3a:9e:1a:65:c8:51:2e:ce:41:bd:09:43:40:c4:
                    7a:ef:a2:d9:60:e1:94:86:8c:2e:45:79:d6:13:2e:
                    64:0f:08:4c:8b:52:18:5b:f2:27:98:ec:44:c3:04:
                    65:33:1f:39:9d:1b:d7:7a:82:c3:0c:74:55:9f:60:
                    61:d6:2c:d0:d9:19:36:c9:10:7a:4a:5a:ec:71:2d:
                    00:dd:f8:47:17:a3:bc:ae:d1:f8:59:0f:6e:57:c8:
                    13:f5:c8:03:eb:ff:84:5a:a1:98:dc:60:13:01:72:
                    2d:bd:3f:af:d6:cb:e7:a6:59:aa:99:5a:d8:f3:26:
                    c8:c1:d5:92:4e:db:d9:5c:71:02:05:ac:ab:b9:76:
                    89:0c:79:06:8a:76:43:e9:a2:5d:f4:71:fe:50:48:
                    75:59:55:f1:46:b0:6c:1b:3e:d7:6f:0f:9d:61:33:
                    34:7d:34:8d:46:6b:ca:42:9f:29:49:a5:a5:87:48:
                    4b:90:aa:31:bc:0b:33:5d:44:47:48:e1:d5:29:e5:
                    c7:72:0d:93:16:15:8b:14:b2:bb:52:69:02:99:82:
                    78:28:e4:e8:37:5d:5b:ca:f7:86:f1:2e:09:b8:ff:
                    a9:d5:02:18:4c:0c:c5:db:69:2f:0d:ae:ac:4d:44:
                    e8:83:97:06:7b:f8:62:02:a4:e2:89:ca:2a:ef:18:
                    a7:f8:0b:70:3b:ad:63:73:f6:f3:1c:94:6f:0b:b2:
                    36:b4:c4:07:9f:ff:73:6c:08:94:1d:f5:60:bd:3e:
                    11:e4:ce:8b:bb:bb:a8:f3:70:41:20:da:9c:53:f6:
                    d8:7a:2e:43:19:6e:6e:7f:ad:49:e0:82:c6:8e:22:
                    18:8a:97:34:5c:09:ea:54:6b:6b:4c:11:77:66:14:
                    e4:4c:0f:fc:1c:0c:b9:bc:f2:26:2a:1b:71:39:fd:
                    2c:72:84:8e:a5:dc:72:d6:da:61:f5:5d:35:67:39:
                    78:44:78:96:ad:4b:95:51:2a:a1:b5:6b:8a:2d:57:
                    2c:c1:0a:7f:09:35:57:81:3e:36:cc:62:d2:c7:01:
                    43:fe:13:36:84:04:cd:68:68:d8:60:c2:74:56:73:
                    85:91:24:af:8a:37:3e:ab:39:23:c0:e8:8d:7d:d2:
                    a7:9a:4b:9d:db:b8:e3:1f:10:85:66:5f:4e:f2:84:
                    64:98:e0:b3:6e:f7:16:f6:7e:be:6c:b1:6e:cb:dc:
                    bc:d5:f9:d5:2a:86:7c:68:ab:49:ec:fa:95:7f:97:
                    47:f3:c6:2e:58:23:8b:80:5c:90:c5:e2:6e:26:ee:
                    25:5e:5f
                Exponent: 65537 (0x10001)
        X509v3 extensions:
            X509v3 Subject Key Identifier: 
                B7:FC:8D:61:57:59:6D:97:9A:ED:E5:61:4A:A5:F7:67:F3:95:C1:5E
            X509v3 Basic Constraints: critical
                CA:FALSE
            X509v3 Key Usage: 
                Digital Signature, Non Repudiation, Key Encipherment, Key Agreement
            X509v3 Extended Key Usage: 
                TLS Web Server Authentication, TLS Web Client Authentication
            X509v3 Authority Key Identifier: 
                keyid:CB:5E:49:C6:ED:76:BB:52:0B:FC:A3:89:F7:1F:B5:0F:FC:B3:50:7D
                DirName:/C=FI/CN=Spaceify CA/O=Spaceify Inc./OU=Certificate issuer
                serial:F2:5C:36:E4:87:48:A5:4C

            X509v3 Subject Alternative Name: 
                IP Address:10.0.0.1, IP Address:127.0.0.1, IP Address:0.0.0.0, DNS:localhost, DNS:edge.spaceify.net
    Signature Algorithm: sha512WithRSAEncryption
         cb:7c:24:3b:75:94:a6:51:c7:e0:f9:9f:80:50:b2:e5:01:7f:
         ff:9e:52:7e:1b:1b:4a:b0:99:78:a3:29:ee:d0:0f:53:39:62:
         78:3e:af:62:72:a4:6d:6b:e0:82:d8:fd:21:5c:26:ca:c7:09:
         57:3a:7a:26:b4:62:4e:18:dd:d3:8b:98:68:aa:b8:9e:a6:29:
         1e:63:72:29:9f:61:01:66:4d:ad:0c:7d:7a:c6:db:2e:42:3e:
         9b:2d:e2:8b:68:2f:d4:58:92:e4:b0:30:6a:29:ed:c4:87:f6:
         91:8f:81:c7:bc:d1:28:34:0a:c3:a1:13:7c:5c:06:e1:63:7b:
         14:a2:ff:ba:fa:b7:c0:7b:4c:3b:a8:f9:9f:8c:b7:9d:93:cd:
         94:0b:67:97:ab:71:ce:a8:18:9f:51:73:ba:be:61:b6:17:08:
         d0:ac:39:ee:7c:b3:c9:af:56:5c:c9:c3:a1:02:ac:19:ed:72:
         23:0d:ba:f6:23:39:ec:88:fb:dd:46:ed:4d:88:c0:1d:8f:a1:
         1e:f2:7a:93:30:70:7a:5e:d1:a9:64:89:0d:97:6f:eb:b0:cb:
         84:81:5d:bb:43:c6:76:63:3c:a6:cf:e9:3f:d4:45:fa:35:1f:
         be:d1:6f:ac:f1:7a:26:8c:f8:d3:41:8b:c2:5c:fb:68:f8:58:
         0c:5a:1e:c1:20:54:85:8c:ca:e2:26:11:08:34:e9:82:74:9d:
         82:b3:26:74:ba:07:89:3f:17:ef:54:66:3c:43:51:0a:79:b6:
         79:a0:c1:f3:5f:6c:b9:1d:d3:f2:26:3b:7d:df:1f:5a:1c:08:
         10:3d:29:ca:4e:66:24:bb:e3:e4:0f:05:80:36:28:99:2b:37:
         d7:51:ad:6e:f7:da:cb:5e:f2:fe:0b:0d:0f:17:26:7f:36:92:
         b1:14:3a:d9:30:59:01:a7:46:ec:f7:3c:34:61:a3:8c:2c:21:
         1e:f1:d0:20:33:c1:d6:28:b7:d4:ed:f3:f0:17:e1:a4:2c:af:
         62:fd:c6:ca:89:c7:5b:19:b8:82:11:d2:9b:86:dd:9c:b5:ef:
         4f:64:9c:6a:b4:48:3e:70:96:40:b0:2d:1f:50:d5:a0:36:cf:
         b1:82:b2:e1:41:9e:14:91:6b:9e:41:7b:6d:f4:0b:2a:c2:d3:
         c2:9b:7a:34:0f:ba:5e:91:95:7e:e1:ca:d4:5e:15:ad:68:57:
         26:0d:a2:b7:7c:cd:71:ef:11:9e:8c:8e:68:8d:d1:1e:79:24:
         7f:c9:57:58:a5:92:3d:7a:e7:82:a2:8a:e0:c0:ba:7b:8a:14:
         3d:4c:1a:52:a6:85:ca:46:24:fd:91:54:93:87:19:b2:ee:5c:
         0c:81:94:41:42:ca:1d:97
-----BEGIN CERTIFICATE-----
MIIGSTCCBDGgAwIBAgIBBjANBgkqhkiG9w0BAQ0FADBYMQswCQYDVQQGEwJGSTEU
MBIGA1UEAxMLU3BhY2VpZnkgQ0ExFjAUBgNVBAoTDVNwYWNlaWZ5IEluYy4xGzAZ
BgNVBAsTEkNlcnRpZmljYXRlIGlzc3VlcjAgFw0xNTAzMjUxMTMwMzhaGA8yMDI2
MDEwNzA0NTgwOVowTjELMAkGA1UEBhMCRkkxDzANBgNVBAMTBlNlcnZlcjEWMBQG
A1UEChMNU3BhY2VpZnkgSW5jLjEWMBQGA1UECxMNU3BhY2VpZnkgY29yZTCCAiIw
DQYJKoZIhvcNAQEBBQADggIPADCCAgoCggIBANfWWDtZPE9O+Ab9shjHPax64MeB
8TdyIuPjINXdSjqeGmXIUS7OQb0JQ0DEeu+i2WDhlIaMLkV51hMuZA8ITItSGFvy
J5jsRMMEZTMfOZ0b13qCwwx0VZ9gYdYs0NkZNskQekpa7HEtAN34RxejvK7R+FkP
blfIE/XIA+v/hFqhmNxgEwFyLb0/r9bL56ZZqpla2PMmyMHVkk7b2VxxAgWsq7l2
iQx5Bop2Q+miXfRx/lBIdVlV8UawbBs+128PnWEzNH00jUZrykKfKUmlpYdIS5Cq
MbwLM11ER0jh1Snlx3INkxYVixSyu1JpApmCeCjk6DddW8r3hvEuCbj/qdUCGEwM
xdtpLw2urE1E6IOXBnv4YgKk4onKKu8Yp/gLcDutY3P28xyUbwuyNrTEB5//c2wI
lB31YL0+EeTOi7u7qPNwQSDanFP22HouQxlubn+tSeCCxo4iGIqXNFwJ6lRra0wR
d2YU5EwP/BwMubzyJiobcTn9LHKEjqXcctbaYfVdNWc5eER4lq1LlVEqobVrii1X
LMEKfwk1V4E+Nsxi0scBQ/4TNoQEzWho2GDCdFZzhZEkr4o3Pqs5I8DojX3Sp5pL
ndu44x8QhWZfTvKEZJjgs273FvZ+vmyxbsvcvNX51SqGfGirSez6lX+XR/PGLlgj
i4BckMXibibuJV5fAgMBAAGjggEkMIIBIDAdBgNVHQ4EFgQUt/yNYVdZbZea7eVh
SqX3Z/OVwV4wDAYDVR0TAQH/BAIwADALBgNVHQ8EBAMCA+gwHQYDVR0lBBYwFAYI
KwYBBQUHAwEGCCsGAQUFBwMCMIGJBgNVHSMEgYEwf4AUy15Jxu12u1IL/KOJ9x+1
D/yzUH2hXKRaMFgxCzAJBgNVBAYTAkZJMRQwEgYDVQQDEwtTcGFjZWlmeSBDQTEW
MBQGA1UEChMNU3BhY2VpZnkgSW5jLjEbMBkGA1UECxMSQ2VydGlmaWNhdGUgaXNz
dWVyggkA8lw25IdIpUwwOQYDVR0RBDIwMIcECgAAAYcEfwAAAYcEAAAAAIIJbG9j
YWxob3N0ghFlZGdlLnNwYWNlaWZ5Lm5ldDANBgkqhkiG9w0BAQ0FAAOCAgEAy3wk
O3WUplHH4PmfgFCy5QF//55SfhsbSrCZeKMp7tAPUzlieD6vYnKkbWvggtj9IVwm
yscJVzp6JrRiThjd04uYaKq4nqYpHmNyKZ9hAWZNrQx9esbbLkI+my3ii2gv1FiS
5LAwaintxIf2kY+Bx7zRKDQKw6ETfFwG4WN7FKL/uvq3wHtMO6j5n4y3nZPNlAtn
l6txzqgYn1Fzur5hthcI0Kw57nyzya9WXMnDoQKsGe1yIw269iM57Ij73UbtTYjA
HY+hHvJ6kzBwel7RqWSJDZdv67DLhIFdu0PGdmM8ps/pP9RF+jUfvtFvrPF6Joz4
00GLwlz7aPhYDFoewSBUhYzK4iYRCDTpgnSdgrMmdLoHiT8X71RmPENRCnm2eaDB
819suR3T8iY7fd8fWhwIED0pyk5mJLvj5A8FgDYomSs311Gtbvfay17y/gsNDxcm
fzaSsRQ62TBZAadG7Pc8NGGjjCwhHvHQIDPB1ii31O3z8BfhpCyvYv3GyonHWxm4
ghHSm4bdnLXvT2ScarRIPnCWQLAtH1DVoDbPsYKy4UGeFJFrnkF7bfQLKsLTwpt6
NA+6XpGVfuHK1F4VrWhXJg2it3zNce8RnoyOaI3RHnkkf8lXWKWSPXrngqKK4MC6
e4oUPUwaUqaFykYk/ZFUk4cZsu5cDIGUQULKHZc=
-----END CERTIFICATE-----
